(lp0
L3456409995L
aL2760419428L
aL4302741444L
aL4290812834L
aL2186279471L
aI1218531169
aL2510811166L
aL4284225253L
aI500776578
aL2802349099L
aI435413125
aL2221359788L
aI1218685820
aI379222428
aL3433555023L
aL4243638498L
aL3232365052L
aI88917366
aI439109628
aL4230633134L
aL4229588010L
aI595398258
aI1324939338
aL4178626396L
aL4082663615L
aL4156197238L
aL2763908367L
aI1851227340
aL4086561257L
aL3191963994L
aI1891721863
aL4124209691L
aL4121088015L
aL3056899122L
aI1160729748
aI496326412
aI1141096236
aL4106698341L
aL4099141000L
aL3955435145L
aL4096713373L
aL4094401333L
aL4085212457L
aI1132668564
aI262446771
aI1931530502
aL4058694261L
aL3598418173L
aL2921218485L
aL4055679443L
aI218287056
aI259435671
aI1022555348
aL2923203321L
aL3663186674L
aI384451613
aL2469423833L
aI567106623
aL3997222462L
aL3850968676L
aL4011372382L
aL4008685162L
aL2744466663L
aL3960358094L
aL3994379519L
aL3949815614L
aL3994608983L
aL3973453450L
aL3024317016L
aL3003922869L
aL3970081996L
aL2149931853L
aL3900759192L
aL3345321167L
aL3157998592L
aI272686220
aI253585038
aL3760206334L
aL2609012228L
aL3799146493L
aL3873253773L
aI444859776
aL3774229814L
aL3853204043L
aI209157440
aL3758890212L
aI826066196
aL3822793816L
aL3777246453L
aI140384480
aI759732973
aL3740604976L
aL3693153024L
aL2862140512L
aL3752290582L
aL2554172789L
aL2562776522L
aL3744545303L
aL2800425131L
aL3735860361L
aL3622979652L
aL2961120323L
aL3546323895L
aL3613053374L
aI232495580
aL2763347463L
aI702871157
aL2706100715L
aL3646807337L
aL3550870633L
aI1859148836
aL2371894526L
aL3326475520L
aL3629367029L
aI1672680728
aI22169523
aI1052815280
aI34195818
aI293599389
aL2348754255L
aI275862327
aL2237962629L
aL2834477695L
aI995978072
aI625758988
aL2147751886L
aL3239135617L
aI243534409
aI276843159
aL3540875003L
aI445159982
aL3057743334L
aL3422145559L
aL3400199353L
aI92488429
aL2997027716L
aL3032370695L
aL3490009995L
aL2462646652L
aL3349619697L
aL3373906941L
aL2738084867L
aL3317907900L
aL3449748137L
aL2850107800L
aL3196813998L
aI181860207
aL3429009077L
aL3055529511L
aL3327457333L
aL3435775437L
aI600332940
aL2829604820L
aL3434355268L
aI150101978
aL3054282954L
aL2909929127L
aI632155870
aL3429955985L
aL3429599103L
aI785357239
aL3427885511L
aI262141504
aI1831871593
aI610016441
aI306188176
aL3288658559L
aL3309625593L
aL3315268837L
aL2743983119L
aL3314730650L
aL2203546090L
aI1642453934
aI442554212
aL3016025869L
aL3419289563L
aL2550129187L
aI548734272
aL2715994913L
aL3025077571L
aI1938650888
aI310232423
aL3311034060L
aL3407828344L
aL3407548559L
aL3042963674L
aL3402667054L
aL3405682641L
aL3307769822L
aL3387072016L
aI118853325
aL2919585763L
aL3057161785L
aI937635630
aI1569281930
aL3305748012L
aI1868327402
aL3248408902L
aL3299087208L
aL2787318919L
aL2907507993L
aI73620115
aI150354334
aL2154968947L
aL3399396123L
aL3121876384L
aL2256302864L
aL3303435336L
aL2720366363L
aI130802795
aL3395976141L
aI209017081
aI617731535
aI88322363
aL3300044467L
aI74689413
aL2768564123L
aL3285263288L
aL2909660118L
aI289049660
aL3294590928L
aL2646321571L
aI203181950
aL2920828076L
aI421371487
aL3090801962L
aI554926436
aI108370938
aL3386449132L
aL2533212831L
aL3007009877L
aL3173253536L
aI320727902
aL3388053479L
aI1102838684
aL3286785462L
aL3386921897L
aL3386750776L
aL3236785213L
aL3285910350L
aL3385612905L
aL3285892680L
aL2601661943L
aI1451356423
aL3285180138L
aL2647055161L
aL3239948118L
aI85581807
aL3162924547L
aL2787151635L
aI139643015
aI254311808
aI385146218
aL2835987258L
aL3281826182L
aI970552814
aL3379047293L
aI611547399
aL3364115229L
aL3373507702L
aI991974828
aL2493885989L
aI79838636
aL2205611861L
aL2821802146L
aL3278035712L
aL2816520602L
aI85749558
aL3277662656L
aL2404015361L
aI1429272703
aL2409359641L
aL3274915904L
aL2867949983L
aL2631695225L
aL3072640260L
aI752849563
aL2844557909L
aL2728410576L
aL3272997980L
aI309213453
aL3272172750L
aL2352234220L
aI139446010
aL3364085897L
aL2207266428L
aL3334494093L
aL3354238894L
aI202896777
aI963549996
aL3358749713L
aL2174395710L
aL2880961215L
aI1314350995
aI159815406
aI212602215
aL2186949279L
aL2720562887L
aL2473722229L
aL2165016650L
aL3265631250L
aL3229283713L
aL3352956291L
aI245045421
aI299747861
aI277169881
aI346623383
aI587459197
aL3260978712L
aL3128450466L
aL2652112585L
aL3254930181L
aL2472247951L
aL2871652968L
aI328599052
aL2546853689L
aL2184772461L
aL3347254877L
aL2769307035L
aL3011148870L
aL2498196192L
aL3244915379L
aI924335240
aI359086647
aL2171426278L
aI606867864
aI588100520
aL2595040525L
aI1111717958
aL3091775311L
aL3343184434L
aI1099256832
aL3046109090L
aL2461272048L
aL3252827994L
aI470349828
aI35490662
aL3340998773L
aL3339853985L
aI186103693
aL2185206537L
aI26660626
aL2230630602L
aL2420043023L
aL2199087075L
aL2233734546L
aL2845404766L
aI985943988
aL2248707273L
aL3314830343L
aL2739511396L
aL2494557955L
aL3026248731L
aI1931519137
aL3246742286L
aL3161560086L
aL2949570438L
aI1708321063
aL3056777697L
aL3022586523L
aL2904143122L
aL2832521359L
aL3167358261L
aI715599096
aI58788602
aI1514392098
aL3325670591L
aL2714656114L
aL3324978598L
aL2279713201L
aI171231093
aL3244383302L
aL3244380308L
aL2599685990L
aL2788275995L
aL2744622011L
aI471325020
aL3225391155L
aL2667396979L
aL2858161145L
aL3198074940L
aL3236518398L
aI60941429
aL3137137684L
aI38187176
aL2612906887L
aL2414953130L
aL2410899484L
aI784202653
aL2562972034L
aL2339215713L
aI1015605894
aL2496435012L
aL2873443069L
aL2810432044L
aL2165368148L
aL2963909941L
aI1101399235
aL3314822249L
aI1651789320
aL2800783526L
aL2568472488L
aI794179165
aI880425404
aL2713817771L
aI1359068378
aI33131262
aI1669327159
aL3311447301L
aL3312601737L
aL3024759658L
aL2826916368L
aI84383154
aL2978148260L
aL2784990557L
aI533342907
aL2482762051L
aL2757498951L
aL3241942521L
aL2759429247L
aI265599075
aL2738197111L
aL3116531319L
aL2635845673L
aL2983522542L
aI1571163186
aL2946051003L
aI339910493
aI631196601
aL2784880604L
aL3051503210L
aI501033341
aL2740708128L
aI767271744
aI968053321
aI514857855
aI1560589298
aL2584727978L
aL2651906226L
aI1889996184
aI560951398
aI613749031
aI534847508
aL3021614569L
aL2182442143L
aL2325259621L
aL3235041361L
aI1119938042
aI25256064
aL3234555792L
aL2718248849L
aI1648905458
aI241152870
aL2955381990L
aI718465813
aL3192202500L
aI1731426066
aL2922549168L
aL3233131086L
aL2974390119L
aL3043119441L
aL2847993432L
aI586456243
aL3305696746L
aL2915668932L
aL3232017288L
aL2903440335L
aI1466055540
aL3232019600L
aL2199498873L
aL3231374059L
aL2883835282L
aI725007595
aL2721111256L
aL2565878522L
aL2283741932L
aL2600375110L
aL2255559024L
aI1210647138
aI894353024
aL3230072558L
aL2885197857L
aI201356060
aL2872594088L
aL2580471884L
aL2959939865L
aL3224417143L
aL2150430272L
aI330199981
aL2820947594L
aL3230116453L
aI436795156
aI1869433632
aL2397732612L
aI227852799
aI200966379
aL3049873640L
aL3227959272L
aL2675722278L
aL3198832537L
aL3302364713L
aL2900440845L
aL3094274572L
aI23251100
aI544341341
aL2901514096L
aI1697946732
aL2780679340L
aL2444895247L
aL3137983854L
aL2295217322L
aL2720814339L
aI1908945776
aL2666761279L
aL3228828132L
aI102366391
aI865607154
aI282238407
aI381848711
aL3153368151L
aL2942811658L
aL2416047686L
aL3295084823L
aL2647440421L
aL2462124608L
aI299858828
aL2429197491L
aI251351585
aI851798726
aL3289605243L
aI360432025
aI58255121
aI66450203
aL3228388626L
aI353208597
aL3032311871L
aL3300694024L
aL2276533806L
aL2790608561L
aL2425649612L
aI1866669102
aL3227868216L
aI630016082
aI1726920936
aL2911695286L
aI175743717
aL2536064154L
aL3028147582L
aL2872986485L
aL2889675946L
aI488312517
aI36730616
aL3227311849L
aL3246758903L
aL3047845396L
aL2974276269L
aL2214910508L
aL2927311706L
aL2610525168L
aL3062491690L
aL2864314145L
aL3127803399L
aI187828263
aI184712462
aL2892431066L
aI1691029536
aL2938870361L
aI248902602
aL3146321624L
aI28905750
aL3193449405L
aL3086530106L
aL2995113836L
aL2759362666L
aL2880147966L
aI722077220
aL3130097799L
aI1157631444
aL3236295213L
aI1072382179
aL2924783972L
aL2914650174L
aL3158517308L
aL2399728676L
aI249304278
aI512113683
aI1322141426
aL2439007429L
aL2977257372L
aL2394414803L
aL3051471057L
aL2863502995L
aL2904548463L
aL2240143585L
aL2797637613L
aL2899943511L
aL3221898432L
aL2558704210L
aL3198468404L
aI227722568
aL2785181272L
aL3181445804L
aL2364514516L
aL3289860135L
aL3185492593L
aL2830143359L
aL2614650133L
aL2225851140L
aL2366151476L
aL3288220342L
aL3218850608L
aI367661263
aI709037582
aL3264768173L
aL2602937447L
aL2208301009L
aL3178146613L
aL2346800955L
aL3197211612L
aL2910574812L
aL2607486037L
aL2863579734L
aL3254565719L
aL3191705400L
aL2852273972L
aL3196367917L
aL2810562561L
aL2374182733L
aL3190309354L
aL2465653494L
aL3196096387L
aL3186264620L
aI701599402
aI1133418997
aL2503954988L
aL2772705545L
aL2490499987L
aL3191771845L
aL3189207270L
aI796691665
aI919842805
aL2184550118L
aL3180987446L
aL2880957487L
aL3194507496L
aI554121145
aI792480456
aI187666243
aL2511579326L
aL3190832002L
aL2241351825L
aL2610759102L
aL2914110883L
aL2275547420L
aL3206827869L
aL3249313107L
aL2821106500L
aI617671907
aI1473484520
aL2380480091L
aL2704484842L
aI370729775
aI367536970
aI471649437
aI1511346062
aL3138866069L
aL2760714671L
aI844597789
aL2997654549L
aL2949943067L
aL2593104150L
aL2932200808L
aL2906864708L
aI389987599
aL2228212323L
aL2347962473L
aL3190690968L
aL2961564953L
aL2258100928L
aL2170586675L
aL2727462961L
aL3024863923L
aI824243220
aL2915666559L
aL2883219090L
aL2734030425L
aL2260809499L
aL2213075720L
aL3161548194L
aL2828524616L
aL2841881424L
aL3145849238L
aL2972366135L
aL2868415896L
aL3099661718L
aL2798475413L
aL2249346018L
aL2449130592L
aL2813486701L
aL3158101531L
aL2976593853L
aL2246603317L
aL2815123069L
aL2910508092L
aL2661655587L
aL2613040222L
aL2686874492L
aL3192165108L
aL2980966333L
aL2853857138L
aL2887224485L
aL2842176159L
aL2894768551L
aL2188786842L
aL2903774657L
aL2811682343L
aL2824145538L
aI546371083
aL2536598150L
aI721466978
aL2523970167L
aI36497584
aL2485926726L
aL3229131705L
aL3245924704L
aL2276453281L
aL3187412694L
aI766543706
aL2234708743L
aL2270694024L
aL2851247416L
aL2420863272L
aI195535331
aL2322669374L
aL2287340804L
aL2806484724L
aL2171037962L
aL3178912201L
aI1488770048
aI1710202069
aL2899518299L
aL3101075746L
aL2891846739L
aL2580692933L
aL3018127389L
aL2597323236L
aI369520866
aL2760350571L
aL2869104416L
aL2956697878L
aL2174674539L
aL2794940196L
aL3214325680L
aL3239469689L
aI845029664
aI630571755
aL2767627335L
aL2887261844L
aL3235785225L
aI1033777730
aL2308361688L
aL2712710104L
aL3224418719L
aI1042982431
aL2934572745L
aL2992862618L
aL2770866628L
aL2346240956L
aI1275722155
aL3095898770L
aL3237085930L
aI1609308685
aL2752178899L
aL3145215726L
aL2659419034L
aL2763361247L
aL2912394654L
aL2867895092L
aL2713528613L
aL2329672078L
aL2147618859L
aL2277865380L
aL2449839630L
aL2326156259L
aI1003221888
aI139573311
aL2783450399L
aL2615016684L
aI595055970
aL2361831210L
aI147857750
aL2802468136L
aI537170736
aL2362506320L
aL3011931571L
aL2431346878L
aL2551934778L
aL2915018113L
aI875896484
aL2984819952L
aL2569485422L
aL2860959481L
aI469958882
aL3023453754L
aL2552713099L
aL2795739334L
aL2367962352L
aI608305298
aL2666265386L
aI809834946
aL2730257268L
aL2746976260L
aL2949097834L
aI623825560
aL2299297190L
aL2350041282L
aL2193396975L
aL2384217766L
aL2198313739L
aL2823946150L
aI381241714
aL2463593082L
aL2760442098L
aL2453182420L
aL2600028997L
aL2499806162L
aL2901962216L
aI335521047
aL2723581714L
aL2923162349L
aL2751707223L
aL2838963789L
aI23264160
aL2161894914L
aL3029893696L
aL3192411995L
aL3207710315L
aL3182037542L
aL3188647739L
aL3083449406L
aL2782505435L
aL3101578574L
aL2832453938L
aL3099861427L
aL2536069488L
aI261924988
aI1848023322
aL2988783903L
aI518192333
aI1575784783
aL3122462697L
aI849810452
aL2165825516L
aL2608560395L
aL2858590886L
aL2249890019L
aL3105343615L
aL3074020862L
aL2868930235L
aL3026230199L
aL2780990173L
aL3201045363L
aL3145526456L
aI62584176
aL3124029053L
aL3172155185L
aL3128164694L
aL2882960524L
aL2932114248L
aL2507745030L
aL3015221083L
aL2482769401L
aL3012688704L
aL2847114167L
aL3153165446L
aL3001856613L
aL3100132516L
aL2932222842L
aL3097958522L
aL2970306886L
aL3082531382L
aL3100615605L
aL2869612153L
aL3027477665L
aL2959567638L
aL2945713128L
aL3165862290L
aL3112198663L
aL3040133762L
aL2818935525L
aL3074393963L
aL2950475209L
aL2573788431L
aL3107414243L
aI1940409079
aL2882303924L
aL3160001223L
aI250803165
aL2597038868L
aL2572474942L
aL2801501406L
aL3207865283L
aI1895288065
aL3123195414L
aL2232023807L
aL2532094820L
aL3133015056L
aL2955308248L
aL2743812658L
aI546485321
aL2506455128L
aL3124371552L
aL2246584686L
aL3183524693L
aL3100446713L
aI459791086
aL3061204375L
aL2980510577L
aL2810063103L
aL3176109510L
aL2949271853L
aL2986348704L
aL3157684962L
aL3040183935L
aL2400413043L
aL3051339373L
aL3167669992L
aL2590038048L
aL3053548030L
aL2963255890L
aL3060881539L
aL2398201997L
aL3091131119L
aL2863213730L
aL3143025614L
aL3147474705L
aL2784648071L
aL2952953667L
aL2932816057L
aL2462238253L
aL3154972325L
aI1001578220
aI333008640
aI747709134
aL2590409749L
aI1035679688
aL2862656983L
aI14652235
aI148989391
aI1884372720
aL3212336997L
aL3145296331L
aI554381094
aL3103799778L
aL3079371237L
aL3047762828L
aI702373011
aL3214433997L
aI77428887
aI247513593
aL2923192838L
aL2558203931L
aI182118000
aL3023772455L
aL2934221298L
aI18073853
aI425269688
aI165569796
aL3164002711L
aI1237027134
aI506634838
aI937695649
aL2463592612L
aL3093607391L
aI507517344
aL3188497942L
aI60446456
aI516894186
aL2925548509L
aL2766668445L
aI439845211
aI1155343566
aI729074629
aI1355515897
aI903767538
aI1064558989
aI994113936
aL3165595182L
aI1567109311
aI1942130749
aI1682101800
aI485866105
aI310624738
aL3202487590L
aI168539564
aI388419631
aI370306092
aI420831707
aI1073859326
aI1108512062
aI327428183
aI157576147
aI113619495
aI1272379100
aI1138936670
aI328536465
aI562029557
aI1356620610
aI426710691
aI18967406
aI461664274
aI1420755559
aI1921322340
aI121747583
aI495040434
aI1623461178
aI623864557
aI1120019353
aI467861673
aI1072495994
aI44378283
aL3149605952L
aL3193273090L
aI353745892
aL3118776260L
aL2949129631L
aL2789984203L
aI25863241
aI1112727067
aI1646594820
aI172616284
aL3150025260L
aL3088558781L
aI63192027
aI242382655
aL3168530245L
aI986620052
aI552204324
aL2505736425L
aI430075381
aI234024880
aL3167441862L
aI1416304957
aI106732424
aL3104643528L
aI258443832
aI153626857
aI360184963
aL3165652662L
aL2962964752L
aI358479120
aL3142678010L
aI932591084
aL2903964195L
aI1011596731
aL2572441816L
aI934883881
aL3162589500L
aI367517864
aI836009496
aI87655882
aI185462778
aI281797177
aI1089176876
aI303776964
aI728178696
aL3101171243L
aI227590508
aL3174493420L
aL2740506018L
aI803108515
aI1228518715
aI558726565
aI599565568
aI280596774
aI75551148
aL3115921876L
aL2765397299L
aI498415510
aI632284598
aI626024756
aI793237435
aL2541088837L
aI780613418
aL2458717073L
aL2728971993L
aL3095587643L
aL2908675193L
aL2802054483L
aL3169841110L
aI710488566
aI132639232
aI564266892
aI356873756
aI1511326952
aI1869151362
aI1015685078
aI1480028732
aL3167646034L
aI1220295134
aL3152364541L
aL3139125550L
aI715092396
aI1947493939
aI389579592
aI303478455
aI1934859956
aL3146880283L
aL3147159121L
aI545522589
aI228520678
aI1945131120
aI1483813332
aI1450029282
aI293428330
aI1593451962
aI1537106214
aI1692304082
aI817058010
aI137800434
aI1628328530
aI794507274
aI19994782
aI56208483
aI1447862425
aI819498480
aI1216096842
aI126729169
aI1296089900
aI23851980
aI1365071670
aI29243498
aI409006330
aI414232106
aI725857220
aL3149854399L
aL3165640240L
aL3117279153L
aL3165055054L
aI1716412597
aI830201780
aL3161693829L
aI882104900
aI43273930
aL2998319248L
aI572419014
aI137058796
aL2916835444L
aL2880353351L
aL2532687574L
aL3143293772L
aL2940450606L
aI1071297576
aL2989069982L
aL3066721423L
aI296102795
aL3025262358L
aI1066295750
aL3090667900L
aL3123371795L
aL3146708911L
aI89661165
aI1468796040
aI1280241570
aI733305667
aI1708874630
aI1271682156
aI718980190
aI935502991
aL2375377752L
aL3140451350L
aI360054749
aL3139018808L
aI1408765885
aI1422701797
aI222742366
aL3133253045L
aI1605140634
aI187524607
aI609435676
aI1558625773
aL3002886691L
aI619093263
aI84448161
aI158239374
aL3129294216L
aI1353791024
aI829314312
aI124980477
aI491108401
aI454862409
aI520791385
aI1855083691
aI1336334130
aI574881495
aI350867105
aL3127433405L
aI859649180
aL3019227436L
aI736024232
aI791247524
aI489153930
aI109698322
aI1728090582
aI1513369848
aL3129777820L
aI580261938
aI1548425348
aI588529297
aI1716784526
aI84740016
aI116721444
aI1879579410
aI435482795
aI516181951
aI817530481
aI300338340
aI1689436909
aI634102172
aI572852234
aI135875089
aL3093883629L
aI586242712
aI1306226197
aI1357513418
aI1829654874
aI47768817
aI1173408757
aI604658981
aI510165849
aI1903544400
aL2546695901L
aL2901751507L
aI312635894
aI577323185
aI1420274653
aI158341236
aI1650138631
aI426066304
aI1903355688
aI1929185760
aI372341886
aI1930425464
aI1245414770
aI1892381941
aI357952946
aI331762987
aI80703730
aL2940791115L
aI1330464757
aI336379797
aI544481042
aI974226654
aL2858246811L
aL3073159929L
aI201044052
aL2680735281L
aI176888629
aI469809235
aI1406598410
aI379838792
aL3123742090L
aI1491968424
aI633010938
aI439843373
aI1000114214
aI629983990
aI467262047
aI549582894
aI518864472
aI1051468488
aI631041286
aI435244449
aI483058232
aI1106670330
aI1607074508
aI1061353855
aI947160164
aI132590838
aI249414542
aI1640886018
aI634885094
aI336304513
aI1900409378
aI1299391284
aI342168905
aI220158977
aI548656798
aI562815832
aI919251506
aI996206946
aI220920526
aI220329291
aI1964851674
aI507498714
aI480828772
aI388883501
aI157607899
aI410898375
aI1469572142
aI403856331
aI1257279584
aI469488823
aI1031411076
aI1398975846
aI995597306
aI1258286899
aI1682247524
aI303732167
aI598727656
aI134889262
aI1225618292
aI119977766
aI108129702
aI376394842
aI330067988
aL2973347985L
aI361923478
aI426705352
aI325116299
aI938385320
aI1645456202
aI745856300
aI169157337
aI809513054
aI1859396420
aI81281706
aI361779310
aI123157961
aI709298827
aI419933273
aL3108610212L
aI845641088
aL2734229487L
aI1277628906
aI1271717312
aI166835736
aI1859477016
aI739174585
aI1706689400
aI1293274087
aI157701065
aI543901049
aL3087673338L
aI227071663
aL3012454491L
aL3097270583L
aI590541571
aL3110894541L
aL3075033848L
aL3001962678L
aI1728604584
aI238585360
aL3104189076L
aI147353636
aI198754027
aL2991559186L
aL3101042247L
aL3103026627L
aL3102268455L
aL2347460719L
aL3025022776L
aI475538201
aL2513777838L
aI1151454530
aL2950885874L
aL3053724432L
aI404089230
aL2329048663L
aI1077224432
aL2753774019L
aI280300933
aI1357868167
aI304621494
aI341676487
aI258486699
aI485359132
aI247154798
aI274221095
aL3073034211L
aI187062149
aL2962318655L
aI494412475
aI1176042060
aI304961661
aI80613326
aI218072924
aI224721074
aI164100315
aI80613726
aI98907774
aI464781950
aI407072287
aI234595487
aI245901237
aL3074407213L
aL3087734933L
aL3076481722L
aI313264648
aI193184709
aI63585005
aI181261459
aI66846364
aI284273549
aI248329011
aI185687816
aI53698968
aI183217923
aI20968904
aL2844385435L
aI261824180
aI1463963934
aL3038003641L
aL3078959854L
aL3078807328L
aI488581134
aI509754713
aL2922837477L
aI318179621
aI41251091
aL2200725947L
aI225257533
aI1669301503
aI186623319
aI60117150
aL2804328542L
aI470604603
aL2895190360L
aI304159617
aI941177154
aI565685710
aI710451322
aI310519897
aI292155520
aI528724416
aI125477428
aI518363697
aI559982400
aI465923945
aI108597398
aI354443885
aI498746455
aI18350921
aI63303418
aI89503691
aI176476564
aI88558111
aI525961559
aI575928067
aI467855530
aI617247804
aI274753575
aL3060436411L
aI1487745170
aI442991512
aI1009987490
aI414409041
aI712873813
aL3031650660L
aI368431217
aL2560182116L
aI535685130
aI612862797
aI69616487
aI122408269
aI892583588
aI922972256
aI553848163
aI922694215
aI315977219
aI1706265589
aI1477076240
aL3052474138L
aI35402499
aL2598970099L
aI1558523995
aI1676658871
aL2362192236L
aI581936936
aL3056178892L
aI288050404
aI179350576
aI776302177
aI1477662540
aI900699882
aI1153287552
aI1327957272
aL2885715272L
aI1834471056
aI78889333
aL3056969146L
aI76653947
aL3008674959L
aI1694148240
aI20622917
aI363308719
aI1557021204
aI143664631
aI1445191310
aI1654656253
aI436692863
aL3032611694L
aI858592381
aI361713724
aI154752309
aI249191323
aI361043882
aI1252280094
aI181793178
aI287485938
aI385137827
aI477087721
aI353994154
aI278898531
aI233460602
aI515964881
aI499170937
aI1176711193
aI279908811
aI587578116
aI604172807
aI745999118
aI376722263
aI926679062
aI1286291726
aI809865871
aI336981217
aI558847441
aI559426823
aI1345555572
aI1525257367
aI622877722
aL3024263094L
aI235580769
aL2957912226L
aL3024586003L
aL3023357425L
aI876863089
aI276750800
aI482392433
aI480519251
aI449143234
aI198885393
aI191635436
aI84198677
aI932283631
aI227243948
aI356986705
aI454574513
aI148419314
aI635192736
aI215670021
aI31340939
aI812495492
aI344514857
aI1949283889
aI758920376
aI149907149
aI371114384
aI1191249103
aI1570358928
aL3019924057L
aI856229251
aI1074952759
aI204193473
aL3020032039L
aI368812385
aI486446990
aL2884958028L
aL3032983631L
aL3029665066L
aI983820865
aL3010411400L
aI120875729
aI135989535
aI313971175
aI956377148
aL2958633226L
aI218626371
aI411733555
aI377253202
aI471748492
aL2960919880L
aI57432347
aI145875392
aI39779445
aI532693290
aI829739089
aI244593423
aI586772608
aI37823022
aL3007052236L
aL2481539345L
aL3020822187L
aL3008287734L
aI590141961
aL2959368765L
aI590070665
aL2389421054L
aL3020709399L
aL3009039002L
aI287060164
aL3019397577L
aL3019338569L
aI97996110
aL3014517959L
aI406627391
aI1538825852
aL3009198461L
aI1139976037
aL3017175719L
aI282835632
aI247241434
aI456188861
aI238576799
aI545613705
aI543342834
aI590441753
aI125315618
aI185995796
aL3014583417L
aL2586729656L
aL2971552773L
aI396155458
aL2991668955L
aI80149297
aL2609382263L
aI458366188
aI1357433748
aI297202217
aI182722176
aI1518065635
aI544159305
aI160896843
aL2840741363L
aI1138431626
aI809264605
aI574404014
aI477977316
aL2962622325L
aL2244914006L
aL2944154162L
aI305658105
aI125439215
aI430338391
aI392898721
aI407839171
aI382251061
aI195422387
aI205736636
aI151944368
aI425988630
aI619873941
aI450796003
aI591812004
aI268759314
aI462322131
aI312878403
aI621242232
aI134854140
aI465976170
aI127932836
aL2889233789L
aI185567306
aL2909437364L
aL2786019035L
aI198556401
aI1083784010
aI445109080
aI1028965795
aI74688741
aL3002118036L
aL3003662273L
aI624048009
aL2995442060L
aI904410751
aI911394950
aI392063613
aI382503990
aI499041724
aI1378002361
aI745320606
aI1035056342
aI586787361
aL2999986251L
aI549408984
aI236716496
aI297603342
aI283679719
aI480776256
aI86087824
aI90641569
aI976906387
aI249942049
aI113774581
aL2942438919L
aI242839099
aI844592640
aI1013555311
aI868628622
aI899738720
aI1050994651
aI67323418
aI414408554
aI500115764
aI882943982
aI1012865623
aI978925506
aI1007279743
aI1014206204
aI275200273
aI92293927
aI995840341
aI911437549
aI149011832
aI182030333
aI976200097
aL2959948543L
aI37443082
aI581267836
aI842972390
aI1065131443
aL2767175297L
aI410081035
aL2992484645L
aI1051177448
aI291430354
aI289925293
aI631256205
aI418980354
aI57423293
aI256855476
aI270140729
aI469348546
aI243015205
aL2599624117L
aI734813720
aL2580735163L
aI1244615833
aI411289847
aI1032594110
aI26540805
aI441755223
aI931834656
aL2837482221L
aL2398645182L
aI1412526302
aL2191549152L
aI1135913569
aI634051730
aI169735374
aI762236372
aL2781848604L
aI1042530836
aL2957818451L
aL2898807899L
aI437638479
aI743344836
aI1643509820
aL2995194710L
aL2816769196L
aI387361087
aL2959135138L
aI1499724750
aI387428194
aI1265900450
aI1459242180
aI1330159014
aI56851432
aI1086220056
aI1869078006
aI367315186
aI210831309
aI1705973312
aI96689062
aI169432921
aI1345893066
aI108499588
aI848625884
aL2986008191L
aL2985574665L
aI15812324
aI206279388
aI1108802168
aL2968423459L
aI862908686
aI187309873
aI1162586954
aI1855118216
aL2736322587L
aI91879705
aI147927535
aI250230140
aI412256098
aI752969917
aI1477846436
aI1524249361
aI25988028
aI340708483
aI357309021
aI716757896
aI1547016248
aI1733326166
aI456876754
aI234216898
aI93722058
aI366740131
aI145886542
aI343681799
aL2750262573L
aL2987378514L
aI1608780666
aL2207018116L
aL2985867338L
aI334665457
aI500317281
aI1080731846
aI200794456
aI129058518
aI1718635974
aI319090694
aI483114934
aI229236674
aI362145716
aI1693999344
aI434396336
aI541626013
aL2516856971L
aL2465488550L
aI1429216651
aI1932773340
aI1169902062
aL2904437481L
aI1861289030
aL2399492641L
aL2507934661L
aI390572772
aI1283500134
aI1538101764
aI431924538
aI1317177829
aI1726563559
aI1618238198
aI178755618
aI1731347713
aI281185116
aI578577739
aI1307802230
aI898728756
aI1856871570
aI726375218
aI459191831
aI1439189239
aI1636683870
aI790284548
aI635143469
aI1603126116
aI313781010
aI377252197
aI421421068
aI468184700
aI163647918
aI831241358
aL2933068326L
aL2980331703L
aI313265395
aL2782766324L
aI1062960331
aL2976999432L
aI287573266
aI1226473886
aI227554073
aL2980714866L
aI813280909
aI1073939088
aI1891716272
aI136073396
aL2975337511L
aI588193908
aI997103311
aI968327504
aI240231916
aL2717848935L
aI820371650
aL2612446859L
aI472360407
aL2971391253L
aI434761957
aL2969851323L
aI636654554
aI245390588
aI1561477478
aI125443630
aI787402225
aI631835292
aI315880894
aI353522157
aI964035698
aI452345288
aI53675170
aI1104087379
aI912109224
aI380861935
aI25046138
aI711147584
aI1697345510
aI159674500
aI1732778006
aI557262033
aL2774271552L
aI176597632
aI382778650
aI1590388459
aI39619859
aI241700773
aI1039646894
aI630003996
aI466660428
aI700264437
aI1195320132
aI1553188290
aI1615003345
aI1433644309
aL2955711242L
aI710275513
aI180106379
aI421153523
aI550557349
aI546535560
aI73913324
aI64728996
aI400920099
aI196705751
aI341666933
aI539202450
aI456912824
aI595650190
aI218652941
aI1370172289
aI714438231
aI488148070
aI341475459
aL2805669734L
aI712698263
aI267831872
aI1000334923
aI1317867578
aI349295861
aI429596483
aI323923230
aI494916311
aI1359330636
aI117875309
aI224275999
aI149477735
aL2960685307L
aL2511939247L
aI1209863551
aI213972881
aI4341881
aI56860725
aI298979237
aI23187411
aI308597579
aI1239493802
aI233174577
aL2586391351L
aI1115138238
aL2960264296L
aI596258543
aI110694853
aI851959662
aI438855631
aI1274692567
aL2946256391L
aI1285505395
aI97932783
aI375377539
aL2398346660L
aL2960770618L
aI885848101
aI236744717
aI458047779
aI1963515588
aI43336658
aI1665588751
aI833985649
aI615585653
aI312598850
aI1287887269
aI1651598785
aI585898085
aI1380268152
aI299024846
aI948503815
aI1972673263
aI50212323
aI375053353
aI1454810792
aI326832347
aI1632484866
aI174076455
aI1065652687
aI1660643706
aI107845325
aI1276064670
aI1407055117
aI47587803
aI390554423
aI1860765900
aI349294588
aI100514822
aI520035318
aI121574746
aI124169984
aI1468001556
aI199190122
aI44557019
aI1074736927
aI569713109
aL2426432653L
aI68161903
aI707444113
aI883545475
aI233658254
aI1148877978
aI1106492520
aI343986673
aI1660165802
aI312084414
aI1256776657
aL2786561410L
aL2149189627L
aL2956974424L
aI1882464774
aL2944775364L
aI804021482
aL2282286691L
aI1005443382
aI91930206
aI534469378
aI123666712
aI633451178
aI1542627289
aI258037998
aI49939736
aI359866619
aI1733389304
aI934229810
aI336807037
aI1324721425
aI621365866
aI493534981
aI796410943
aI578456140
aI1530397544
aI315990874
aI819544945
aI448942295
aI458420364
aI430333281
aI309112769
aI1346046222
aI1574876520
aI1202358900
aI532779013
aI243386456
aI283021854
aI132970369
aI167585932
aI1154692742
aI279096503
aL2950826593L
aI331547234
aI1658670386
aI1338033223
aI1422266953
aI392926962
aI465905167
aL2902212810L
aI376946919
aL2899429524L
aI104837787
aI1170460248
aI91726967
aI202320948
aI1949860327
aI826058462
aI1727962712
aI100574042
aI1648691546
aI313257387
aI1511476202
aI1356504356
aI45447469
aI1880317130
aI1085123533
aI47258680
aI522635440
aI1618070924
aI473225682
aI107796810
aI289560410
aI166753886
aI403131318
aI174565822
aI1074035694
aI823166185
aI586937745
aI265039240
aI900193370
aI575500202
aI299725772
aI1186341188
aI385612990
aI1138856426
aI378777075
aI55309003
aI1006245774
aI911501041
aI1709770099
aI713142945
aI333396364
aI1971827340
aI489959553
aI250697397
aI1390237321
aI20315789
aI859786567
aI127139429
aI427321349
aI79270900
aI1920171835
aI1856426340
aI802809260
aI374187265
aI401293078
aL2946746480L
aI312615468
aI1120232448
aI595219895
aI1122085898
aI177615070
aI895620530
aI896194380
aI620669588
aI272129233
aL2943637450L
aI1626280220
aI118283302
aI114673303
aI805283348
aI137486407
aI707985398
aI187014921
aI1869845150
aI407698625
aI610501300
aI275755993
aI1938720756
aI41848953
aI424112744
aI818426370
aI47657414
aI1667860267
aI244629345
aI69053441
aI355947161
aI1660738146
aI356044526
aI1051477548
aI238682747
aI263765611
aI103788833
aI1624027969
aI1616622992
aI821286973
aI373391960
aI1563905881
aI455479015
aI164687076
aI34970010
aI1458683070
aI121958389
aI28237418
aI365788158
aI46582239
aI1620954152
aI45823583
aI580177222
aI623033417
aI125985595
aI466700386
aI174182535
aI897815808
aL2942920154L
aI376385097
aI465024860
aI441263719
aI1122054806
aI712808660
aI401421525
aI89782747
aI394411044
aI385028383
aI1725849030
aI1139866159
aI606163509
aI1705071774
aI269394894
aI1265683220
aI167286588
aI1352791410
aI1885918238
aI1278910782
aI169779439
aI1186778479
aI1671181902
aI866817180
aI1104509066
aI103962960
aI349497813
aI930235105
aI225423305
aI111867945
aI1523766583
aL2935285213L
aI380717925
aI878747000
aI1052479644
aI1604767950
aI546483347
aI1546625671
aL2768144529L
aI1345523492
aI522390607
aI326548319
aL2923551801L
aI353876494
aI901486184
aI19034901
aI471175022
aI67128330
aI165898243
aI570200255
aL2788234311L
aL2923815923L
aI141431098
aI386972040
aI1199580878
aI563047282
aI420808192
aI128887895
aI1148783954
aI868636488
aL2921808897L
aI42451791
aL2915974478L
aI1589347297
aI372669333
aI203675505
aI332513901
aI964644295
aI562492359
aI231550278
aI270102469
aI1690045327
aI219337912
aI214400748
aI591306759
aI17990089
aI1458008952
aI532915361
aI43369923
aI1360179402
aI811290440
aI1705027987
aI221249033
aI428536925
aI124640366
aI1413601172
aL2926433892L
aI391798433
aI1382870972
aI561996406
aI592938771
aI79362801
aL2900304873L
aL2739953243L
aI1203558498
aI1854245868
aI349456085
aI1279786039
aL2369981952L
aI238630285
aI318970484
aI364182903
aI423239119
aL2834648122L
aI202721764
aL2909796879L
aI991615910
aI762782562
aI1584929990
aI1160446364
aI1068702498
aL2825154803L
aI233895233
aI1337902975
aI1453894003
aI529507266
aI801063932
aI148732140
aI218434473
aL2892812063L
aL2899768443L
aI1332144522
aI555667169
aI48660269
aI23978832
aI448640319
aI776829319
aI1891457041
aI937923890
aI1112119867
aI1045869025
aI217102258
aI389667928
aI891794382
aI801974706
aI52432756
aI65529451
aI637144547
aI45262840
aI228481866
aI234779826
aI480854519
aI763302996
aI206035884
aI444012154
aI305850470
aI27368746
aI1004609101
aI793347710
aI1289140753
aI384747436
aI829731536
aI574831079
aI1333000315
aI633920083
aI148037409
aI968182484
aI1575561937
aI163941050
aI313282528
aI320712268
aI561319502
aI1159385406
aL2517867075L
aI605397438
aI400007831
aI382183852
aI292745052
aI1723188296
aI553283067
aI1642973041
aI297635729
aI21877090
aI852487219
aI840527028
aI386606326
aL2765121981L
aI501744543
aI722647746
aI1392928884
aI1898413189
aI68921362
aI868960286
aI288313616
aI1387127192
aL2894452571L
aI1489031616
aI240579398
aI41597842
aI778562264
aI246015679
aI969339757
aI374492838
aI247767602
aI90000413
aI263197146
aI1163158381
aI1184459196
aI55420829
aI964236145
aI130117616
aI540444503
aI1462974301
aI1059029071
aI559503643
aI479977977
aI454335784
aI1112605110
aI92686661
aI946172990
aI1879040640
aI1900736376
aI1564852495
aI251789412
aI484062794
aI998027636
aI570733179
aI299455412
aI82243428
aI1150656572
aI1273308542
aI27814267
aI452172612
aI504484196
aI314818328
aI1891970730
aI1638662311
aL2738278616L
aI153300222
aI1739074579
aI59426903
aI332915687
aI84813185
aI457197789
aL2586530786L
aI773015318
aI354967763
aI42299681
aI1613572040
aI144720290
aI283219125
aI560077677
aI123369137
aI1721382992
aI142514330
aI549713708
aI522911886
aI223941023
aI156683939
aI536537948
aI41430003
aI199317006
aI613749638
aI66284022
aI1536643556
aI700697015
aL2906263967L
aI39648569
aI1462935422
aI592536825
aI420316590
aI366196781
aI633609960
aI1537953254
aI292394093
aI351457016
aI1301419549
aI711167379
aI546522220
aI153363077
aI850540591
aI1128220207
aI1860270744
aI914792936
aL2586945961L
aI1210210231
aI378298804
aI1699420628
aI170852029
aI419108020
aI430219289
aI389594281
aL2897655293L
aI1945154798
aI1173899396
aL2299176711L
aI495004209
aI275581440
aI123543711
aI339873141
aI348961952
aI368787409
aI425121589
aI468683638
aI1169589368
aI783319638
aI488100686
aI32912707
aI1093606478
aI233673426
aI1710964795
aI26693767
aI537019700
aI841542391
aI269285149
aI1228924254
aL2894538317L
aI479386310
aI182037568
aI812374003
aL2895044896L
aI383595368
aI353308538
aI553084198
aI1108598232
aI493298433
aI87995694
aI1854519049
aI1161528116
aI866336082
aI122374038
aI73260452
aI1654994582
aI1400107608
aI95563456
aI1484196750
aI242394547
aI15285313
aI38376257
aL2911248860L
aI245246790
aI426958309
aI891147379
aI31528676
aI305467343
aI1859090138
aI1155193723
aI271286579
aI870463322
aI1107386065
aI181745558
aI390409683
aI199046267
aI527956429
aI219204649
aI1372272366
aI1342618974
aI25982558
aI105127837
aI153751658
aI151347795
aI226555232
aI47402924
aI392805270
aI535284552
aI1041668538
aI508028233
aI931595953
aI1167608208
aI591219863
aI1275947299
aI1858928690
aI834815354
aI341650383
aI750144295
aI716536249
aI1679644452
aI1450240214
aI484077995
aL2886068711L
aL2728737223L
aI1033257228
aI1632913135
aI1729390447
aI377555296
aI189071200
aI317177978
aL2845321282L
aI1618632744
aL2885559107L
aI181592184
aI1625232601
aI356607757
aI534545416
aI345750159
aI401863960
aI96765743
aI427614463
aI460926954
aI1935004502
aI1169732443
aI197924089
aI474755269
aI1571460607
aI1147653078
aI789357187
aI794573384
aI1632614088
aI702356245
aI1119514975
aI346885415
aI214843226
aI304740275
aL2422262269L
aI1671519751
aI1907610878
aI1933057740
aI1198997029
aI373488007
aI717519443
aI492035816
aI310025684
aI601843327
aI55784875
aI17018005
aI1228051820
aI1138757528
aI21753283
aI1067028264
aI387496404
aI1173429180
aI1634000346
aI28210109
aI181703950
aI26665730
aI1582759724
aI36005987
aI140035895
aI499975329
aI279556994
aI303424366
aI938078724
aI152602159
aI230547152
aI1658055906
aI74611043
aI244463438
aI202810009
aI149094156
aI59253908
aI1655364128
aI1394527548
aI290714006
aI227416294
aI51393905
aI1580112068
aI458507811
aI1212317526
aI1860198936
aI320953906
aL2637724113L
aI1489472274
aI1397469805
aI1723266134
aI988333693
aI1502047410
aI230333852
aI153247553
aI129378544
aL2873891735L
aI33748451
aI323002338
aI636980232
aI1136574601
aI32100926
aI636232023
aI127773540
aI16080072
aI1199087690
aI95837777
aI1496123785
aI27764155
aI201922257
aI1214014080
aI592026799
aI1878898086
aI574812595
aI485405263
aI1940736848
aI397196623
aI1352815399
aI323509659
aI759460098
aI1781734561
aI1679090791
aL2890188427L
aI1292027670
aL2795166325L
aI331541605
aI380737939
aI315951856
aI1851127722
aI951560582
aI340826293
aI895882184
aI350496673
aI1267770570
aI1306321987
aI1536265369
aI431871594
aI1927228484
aL2556539069L
aI95747438
aI349349517
aI212536015
aI971016210
aI1634508745
aI1887902557
aI812890148
aI1560404545
aI99052348
aI1965276553
aI900092810
aI899627514
aI1636394329
aI1146621476
aI588223820
aI1214108887
aI1076344183
aI128536516
aI426136556
aI1046615520
aI212308862
aI989372732
aI1037099876
aI846130034
aI1491111702
aI1374601484
aI702812110
a.